(dp0
S'20:3A:07:48:22:51'
p1
(dp2
I78
(lp3
(I1
I1
tp4
a(I1
I2
tp5
assS'88:75:56:C6:51:D1'
p6
(dp7
I83
(lp8
(I0
I0
tp9
assS'88:75:56:87:86:61'
p10
(dp11
I80
(lp12
g4
ag5
asI85
(lp13
(I1
I4
tp14
a(I1
I5
tp15
assS'88:75:56:C6:50:91'
p16
(dp17
I64
(lp18
(I2
I2
tp19
a(I3
I5
tp20
asI68
(lp21
(I0
I3
tp22
a(I0
I4
tp23
asI58
(lp24
g15
asI59
(lp25
(I1
I0
tp26
ag4
a(I3
I3
tp27
a(I3
I4
tp28
asI60
(lp29
g15
asI61
(lp30
g4
ag5
asI62
(lp31
(I0
I1
tp32
ag23
a(I0
I5
tp33
assS'88:75:56:86:B2:31'
p34
(dp35
I84
(lp36
(I3
I2
tp37
assS'88:75:56:C6:57:D1'
p38
(dp39
I64
(lp40
g15
asI69
(lp41
g33
assS'20:3A:07:48:10:51'
p42
(dp43
I73
(lp44
g23
ag15
asI74
(lp45
g9
ag15
a(I2
I1
tp46
ag19
a(I2
I3
tp47
asI75
(lp48
g5
a(I1
I3
tp49
ag37
ag27
asI76
(lp50
g32
ag26
ag4
ag14
ag15
ag27
ag28
asI77
(lp51
g19
asI79
(lp52
g33
ag4
ag5
ag37
assS'20:3A:07:48:25:81'
p53
(dp54
I87
(lp55
g15
assS'88:75:56:87:33:21'
p56
(dp57
I50
(lp58
g5
ag49
asI51
(lp59
g32
asI52
(lp60
g9
a(I0
I2
tp61
ag22
ag4
ag5
ag15
a(I2
I4
tp62
a(I2
I5
tp63
ag20
asI53
(lp64
g22
ag23
ag14
ag15
ag19
ag37
ag27
ag28
asI54
(lp65
g23
a(I2
I0
tp66
asI55
(lp67
g46
ag63
asI57
(lp68
g33
ag19
ag47
asI60
(lp69
g26
ag4
assS'88:75:56:C6:0E:61'
p70
(dp71
I86
(lp72
g4
ag5
assS'88:75:56:57:CD:B1'
p73
(dp74
I81
(lp75
g9
asI84
(lp76
g22
ag23
ag37
ag27
asI85
(lp77
g23
ag33
ag19
ag47
ag37
asI86
(lp78
g4
ag5
asI87
(lp79
g66
asI89
(lp80
g49
ag14
assS'20:3A:07:48:28:D1'
p81
(dp82
I75
(lp83
g4
ag5
asI85
(lp84
g33
asI77
(lp85
g32
ag5
ag49
asI78
(lp86
g22
ag23
asI79
(lp87
g61
ag22
assS'88:75:56:AF:56:51'
p88
(dp89
I73
(lp90
g32
asI74
(lp91
g5
ag49
asI77
(lp92
g15
asI71
(lp93
g27
ag28
assS'20:3A:07:48:1F:E1'
p94
(dp95
I87
(lp96
g37
ag27
assS'88:75:56:C6:08:D1'
p97
(dp98
I72
(lp99
g9
asI67
(lp100
g63
asI68
(lp101
g32
ag61
ag22
asI77
(lp102
g66
asI70
(lp103
g23
ag33
ag26
ag4
assS'20:3A:07:48:28:91'
p104
(dp105
I70
(lp106
g4
ag5
asI74
(lp107
g32
asI75
(lp108
g37
ag27
asI76
(lp109
g15
ag27
ag28
asI77
(lp110
g5
ag49
ag14
ag15
ag46
ag19
asI81
(lp111
g33
assS'88:75:56:86:B1:A1'
p112
(dp113
I74
(lp114
g14
ag15
asI76
(lp115
g33
asI78
(lp116
g26
ag4
ag5
ag49
ag15
asI79
(lp117
g4
ag5
ag15
assS'88:75:56:57:55:51'
p118
(dp119
I37
(lp120
g32
asI38
(lp121
g9
ag32
ag61
ag22
asI39
(lp122
g61
ag5
ag49
ag19
asI41
(lp123
g22
ag23
ag5
ag14
ag15
ag46
asI42
(lp124
g23
ag62
ag63
asI43
(lp125
g33
ag4
ag66
ag46
asI44
(lp126
g9
ag15
ag66
ag47
ag62
ag63
ag28
ag20
asI45
(lp127
g26
ag4
ag19
ag47
ag20
asI46
(lp128
g37
ag27
asI47
(lp129
g49
ag14
ag27
ag28
asI51
(lp130
g26
asI52
(lp131
g37
assS'20:3A:07:48:23:61'
p132
(dp133
I47
(lp134
g19
asI48
(lp135
g33
asI49
(lp136
g4
ag5
asI51
(lp137
g28
ag20
asI52
(lp138
g5
ag49
ag15
ag19
ag47
ag37
ag27
asI53
(lp139
g49
ag14
ag27
ag28
asI55
(lp140
g23
asI58
(lp141
g63
assS'88:75:56:C6:50:F1'
p142
(dp143
I54
(lp144
g32
asI55
(lp145
g26
ag4
asI56
(lp146
g20
asI57
(lp147
g5
ag49
asI59
(lp148
g4
ag5
asI62
(lp149
g15
ag37
ag27
assS'20:3A:07:6F:52:F1'
p150
(dp151
I66
(lp152
g19
ag47
asI67
(lp153
g33
asI69
(lp154
g23
asI70
(lp155
g47
ag62
assS'88:75:56:86:B2:B1'
p156
(dp157
I72
(lp158
g5
ag49
asI73
(lp159
g32
asI67
(lp160
g33
asI70
(lp161
g4
ag5
assS'88:75:56:87:86:01'
p162
(dp163
I65
(lp164
g33
ag19
ag47
asI53
(lp165
g22
ag23
asI54
(lp166
g15
asI56
(lp167
g20
asI57
(lp168
g61
ag22
ag5
ag49
ag14
ag15
ag28
ag20
asI58
(lp169
g26
ag4
ag63
asI59
(lp170
g32
ag23
ag49
ag14
ag62
ag63
asI60
(lp171
g32
ag37
asI61
(lp172
g4
ag5
asI62
(lp173
g19
asI63
(lp174
g46
ag37
ag27
assS'88:75:56:C6:0E:C1'
p175
(dp176
I82
(lp177
g22
ag23
assS'88:75:56:57:5D:A1'
p178
(dp179
I73
(lp180
g32
asI74
(lp181
g20
assS'20:3A:07:6F:5A:11'
p182
(dp183
I56
(lp184
g4
ag5
asI58
(lp185
g19
ag47
ag27
ag28
asI59
(lp186
g22
ag23
ag15
asI60
(lp187
g32
ag33
ag62
ag63
asI61
(lp188
g32
asI62
(lp189
g20
asI63
(lp190
g46
ag19
assS'20:3A:07:48:25:A1'
p191
(dp192
I72
(lp193
g5
ag49
asI73
(lp194
g23
ag4
ag5
asI74
(lp195
g9
asI75
(lp196
g27
ag28
asI76
(lp197
g61
ag22
ag33
ag66
asI77
(lp198
g37
ag27
asI78
(lp199
g32
ag15
asI79
(lp200
g19
ag47
assS'20:3A:07:6E:1E:21'
p201
(dp202
I64
(lp203
g27
ag28
asI65
(lp204
g19
asI67
(lp205
g5
ag49
ag46
asI59
(lp206
g22
ag23
ag14
ag15
asI60
(lp207
g33
ag15
asI61
(lp208
g20
asI62
(lp209
g32
ag4
ag5
ag62
ag63
ag37
ag27
asI63
(lp210
g32
assS'88:75:56:C6:55:91'
p211
(dp212
I82
(lp213
g28
ag20
asI83
(lp214
g32
ag47
ag62
asI85
(lp215
g23
ag33
asI79
(lp216
g49
ag14
assS'88:75:56:87:88:51'
p217
(dp218
I80
(lp219
g26
ag4
ag5
asI81
(lp220
g33
asI85
(lp221
g32
asI78
(lp222
g5
ag49
asI79
(lp223
g22
ag23
assS'88:75:56:87:7E:C1'
p224
(dp225
I75
(lp226
g4
ag5
asI78
(lp227
g37
assS'88:75:56:C6:01:41'
p228
(dp229
I80
(lp230
g15
assS'88:75:56:87:72:21'
p231
(dp232
I64
(lp233
g4
ag5
asI58
(lp234
g14
ag15
asI59
(lp235
g5
ag49
ag15
asI61
(lp236
g26
ag4
asI63
(lp237
g27
ag28
assS'88:75:56:87:22:D1'
p238
(dp239
I78
(lp240
g26
ag4
asI79
(lp241
g5
ag49
ag27
ag28
assS'88:75:56:57:D5:D1'
p242
(dp243
I81
(lp244
g14
ag15
assS'00:22:0C:26:E6:31'
p245
(dp246
I83
(lp247
g61
ag22
ag4
ag5
asI86
(lp248
g66
ag46
ag19
ag47
ag62
assS'88:75:56:87:33:E1'
p249
(dp250
I86
(lp251
g15
assS'20:3A:07:6E:1A:A1'
p252
(dp253
I66
(lp254
g26
ag4
ag19
asI69
(lp255
g33
ag5
ag49
asI70
(lp256
g63
asI71
(lp257
g23
ag37
ag27
asI74
(lp258
g15
asI75
(lp259
g15
assS'20:3A:07:6F:5D:51'
p260
(dp261
I68
(lp262
g27
ag28
asI72
(lp263
g32
asI73
(lp264
g37
ag27
asI74
(lp265
g61
ag22
ag5
ag49
ag14
asI76
(lp266
g23
asI78
(lp267
g19
asI79
(lp268
g33
ass.